; Function Attrs: mustprogress nofree norecurse nosync nounwind willreturn memory(argmem: readwrite) uwtable
define internal void @_ZN5faiss12_GLOBAL__N_114IVFSQScannerL2INS0_10DCTemplateINS0_17QuantizerTemplateINS0_9Codec4bitELb0ELi1EEENS0_12SimilarityL2ILi1EEELi1EEELi2EE9set_queryEPKf(ptr nocapture noundef nonnull align 8 dereferenceable(152) %0, ptr noundef %1) unnamed_addr #3 align 2 {
  %3 = getelementptr inbounds i8, ptr %0, i64 120
  store ptr %1, ptr %3, align 8
  %4 = getelementptr inbounds i8, ptr %0, i64 112
  %5 = load ptr, ptr %4, align 8
  %.not = icmp eq ptr %5, null
  br i1 %.not, label %6, label %8

6:                                                ; preds = %2
  %7 = getelementptr inbounds i8, ptr %0, i64 64
  store ptr %1, ptr %7, align 8
  br label %8

8:                                                ; preds = %6, %2
  ret void
}